0000000000401a1d <start_farm>:
  401a1d:	b8 01 00 00 00       	mov    $0x1,%eax
  401a22:	c3                   	retq   

0000000000401a23 <setval_142>:
  401a23:	c7 07 48 89 c7 c3    	movl   $0xc3c78948,(%rdi)
  401a29:	c3                   	retq   

0000000000401a2a <addval_201>:
  401a2a:	8d 87 5c 4c 89 c7    	lea    -0x3876b3a4(%rdi),%eax
  401a30:	c3                   	retq   

0000000000401a31 <setval_441>:
  401a31:	c7 07 48 89 c7 c3    	movl   $0xc3c78948,(%rdi)
  401a37:	c3                   	retq   

0000000000401a38 <setval_448>:
  401a38:	c7 07 58 c3 af 28    	movl   $0x28afc358,(%rdi)
  401a3e:	c3                   	retq   

0000000000401a3f <addval_460>:
  401a3f:	8d 87 48 89 c7 c1    	lea    -0x3e3876b8(%rdi),%eax
  401a45:	c3                   	retq   

0000000000401a46 <addval_146>:
  401a46:	8d 87 ee 48 90 c3    	lea    -0x3c6fb712(%rdi),%eax
  401a4c:	c3                   	retq   

0000000000401a4d <setval_105>:
  401a4d:	c7 07 d4 58 91 c3    	movl   $0xc39158d4,(%rdi)
  401a53:	c3                   	retq   

0000000000401a54 <addval_199>:
  401a54:	8d 87 58 90 90 c3    	lea    -0x3c6f6fa8(%rdi),%eax
  401a5a:	c3                   	retq   

0000000000401a5b <mid_farm>:
  401a5b:	b8 01 00 00 00       	mov    $0x1,%eax
  401a60:	c3                   	retq   

0000000000401a61 <add_xy>:
  401a61:	48 8d 04 37          	lea    (%rdi,%rsi,1),%rax
  401a65:	c3                   	retq   

0000000000401a66 <addval_407>:
  401a66:	8d 87 48 89 e0 94    	lea    -0x6b1f76b8(%rdi),%eax
  401a6c:	c3                   	retq   

0000000000401a6d <addval_249>:
  401a6d:	8d 87 89 c1 48 d2    	lea    -0x2db73e77(%rdi),%eax
  401a73:	c3                   	retq   

0000000000401a74 <getval_461>:
  401a74:	b8 08 89 e0 c3       	mov    $0xc3e08908,%eax
  401a79:	c3                   	retq   

0000000000401a7a <setval_464>:
  401a7a:	c7 07 99 d6 38 c0    	movl   $0xc038d699,(%rdi)
  401a80:	c3                   	retq   

0000000000401a81 <setval_417>:
  401a81:	c7 07 88 ca 84 c0    	movl   $0xc084ca88,(%rdi)
  401a87:	c3                   	retq   

0000000000401a88 <getval_396>:
  401a88:	b8 97 8d d6 c3       	mov    $0xc3d68d97,%eax
  401a8d:	c3                   	retq   

0000000000401a8e <addval_271>:
  401a8e:	8d 87 3c a9 d6 c3    	lea    -0x3c2956c4(%rdi),%eax
  401a94:	c3                   	retq   

0000000000401a95 <addval_372>:
  401a95:	8d 87 89 d6 c3 fa    	lea    -0x53c2977(%rdi),%eax
  401a9b:	c3                   	retq   

0000000000401a9c <addval_354>:
  401a9c:	8d 87 89 d6 28 d2    	lea    -0x2dd72977(%rdi),%eax
  401aa2:	c3                   	retq   

0000000000401aa3 <addval_163>:
  401aa3:	8d 87 a4 ea 88 d6    	lea    -0x2977155c(%rdi),%eax
  401aa9:	c3                   	retq   

0000000000401aaa <getval_152>:
  401aaa:	b8 48 89 e0 92       	mov    $0x92e08948,%eax
  401aaf:	c3                   	retq   

0000000000401ab0 <addval_286>:
  401ab0:	8d 87 4a 89 e0 90    	lea    -0x6f1f76b6(%rdi),%eax
  401ab6:	c3                   	retq   

0000000000401ab7 <setval_340>:
  401ab7:	c7 07 48 89 e0 c2    	movl   $0xc2e08948,(%rdi)
  401abd:	c3                   	retq   

0000000000401abe <getval_275>:
  401abe:	b8 89 c1 28 db       	mov    $0xdb28c189,%eax
  401ac3:	c3                   	retq   

0000000000401ac4 <addval_280>:
  401ac4:	8d 87 8b d6 08 c9    	lea    -0x36f72975(%rdi),%eax
  401aca:	c3                   	retq   

0000000000401acb <addval_459>:
  401acb:	8d 87 89 d6 90 c3    	lea    -0x3c6f2977(%rdi),%eax
  401ad1:	c3                   	retq   

0000000000401ad2 <addval_168>:
  401ad2:	8d 87 89 c1 08 c9    	lea    -0x36f73e77(%rdi),%eax
  401ad8:	c3                   	retq   

0000000000401ad9 <setval_290>:
  401ad9:	c7 07 ee c9 c1 90    	movl   $0x90c1c9ee,(%rdi)
  401adf:	c3                   	retq   

0000000000401ae0 <getval_294>:
  401ae0:	b8 89 ca 20 c9       	mov    $0xc920ca89,%eax
  401ae5:	c3                   	retq   

0000000000401ae6 <setval_148>:
  401ae6:	c7 07 48 89 e0 90    	movl   $0x90e08948,(%rdi)
  401aec:	c3                   	retq   

0000000000401aed <addval_335>:
  401aed:	8d 87 58 89 e0 90    	lea    -0x6f1f76a8(%rdi),%eax
  401af3:	c3                   	retq   

0000000000401af4 <setval_408>:
  401af4:	c7 07 a9 ca 84 c9    	movl   $0xc984caa9,(%rdi)
  401afa:	c3                   	retq   

0000000000401afb <getval_346>:
  401afb:	b8 89 c1 28 d2       	mov    $0xd228c189,%eax
  401b00:	c3                   	retq   

0000000000401b01 <setval_205>:
  401b01:	c7 07 88 c1 90 c3    	movl   $0xc390c188,(%rdi)
  401b07:	c3                   	retq   

0000000000401b08 <addval_145>:
  401b08:	8d 87 41 47 89 ca    	lea    -0x3576b8bf(%rdi),%eax
  401b0e:	c3                   	retq   

0000000000401b0f <addval_455>:
  401b0f:	8d 87 89 ca 18 c0    	lea    -0x3fe73577(%rdi),%eax
  401b15:	c3                   	retq   

0000000000401b16 <addval_303>:
  401b16:	8d 87 59 12 8b ca    	lea    -0x3574eda7(%rdi),%eax
  401b1c:	c3                   	retq   

0000000000401b1d <getval_373>:
  401b1d:	b8 89 ca 60 d2       	mov    $0xd260ca89,%eax
  401b22:	c3                   	retq   

0000000000401b23 <setval_209>:
  401b23:	c7 07 d6 3b 89 c1    	movl   $0xc1893bd6,(%rdi)
  401b29:	c3                   	retq   

0000000000401b2a <getval_274>:
  401b2a:	b8 48 89 e0 90       	mov    $0x90e08948,%eax
  401b2f:	c3                   	retq   

0000000000401b30 <addval_336>:
  401b30:	8d 87 89 ca a4 c0    	lea    -0x3f5b3577(%rdi),%eax
  401b36:	c3                   	retq   

0000000000401b37 <setval_118>:
  401b37:	c7 07 89 c1 c2 ad    	movl   $0xadc2c189,(%rdi)
  401b3d:	c3                   	retq   

0000000000401b3e <end_farm>:
  401b3e:	b8 01 00 00 00       	mov    $0x1,%eax
  401b43:	c3                   	retq   